; ModuleID = '35/2457.c'
source_filename = "35/2457.c"
target datalayout = "e-m:e-p270:32:32-p271:32:32-p272:64:64-i64:64-f80:128-n8:16:32:64-S128"
target triple = "x86_64-pc-linux-gnu"

@.str = private unnamed_addr constant [6 x i8] c"%d,%d\00", align 1
@.str.1 = private unnamed_addr constant [3 x i8] c"%d\00", align 1
@.str.2 = private unnamed_addr constant [7 x i8] c"%d+%d\0A\00", align 1
@.str.3 = private unnamed_addr constant [4 x i8] c"No\0A\00", align 1

; Function Attrs: noinline nounwind uwtable
define dso_local i32 @main() #0 {
  %1 = alloca i32, align 4
  %2 = alloca i32, align 4
  %3 = alloca i32, align 4
  %4 = alloca i32, align 4
  %5 = alloca i32, align 4
  %6 = alloca i32, align 4
  %7 = alloca i32, align 4
  %8 = alloca i32, align 4
  %9 = alloca i32, align 4
  %10 = alloca i8*, align 8
  %11 = alloca i64, align 8
  %12 = alloca i64, align 8
  store i32 0, i32* %1, align 4
  store i32 0, i32* %8, align 4
  %13 = call i32 (i8*, ...) @__isoc99_scanf(i8* getelementptr inbounds ([6 x i8], [6 x i8]* @.str, i64 0, i64 0), i32* %2, i32* %3)
  %14 = load i32, i32* %2, align 4
  %15 = zext i32 %14 to i64
  %16 = load i32, i32* %3, align 4
  %17 = zext i32 %16 to i64
  %18 = call i8* @llvm.stacksave()
  store i8* %18, i8** %10, align 8
  %19 = mul nuw i64 %15, %17
  %20 = alloca i32, i64 %19, align 16
  store i64 %15, i64* %11, align 8
  store i64 %17, i64* %12, align 8
  store i32 0, i32* %4, align 4
  br label %21

21:                                               ; preds = %43, %0
  %22 = load i32, i32* %4, align 4
  %23 = load i32, i32* %2, align 4
  %24 = icmp slt i32 %22, %23
  br i1 %24, label %25, label %46

25:                                               ; preds = %21
  store i32 0, i32* %5, align 4
  br label %26

26:                                               ; preds = %39, %25
  %27 = load i32, i32* %5, align 4
  %28 = load i32, i32* %3, align 4
  %29 = icmp slt i32 %27, %28
  br i1 %29, label %30, label %42

30:                                               ; preds = %26
  %31 = load i32, i32* %4, align 4
  %32 = sext i32 %31 to i64
  %33 = mul nsw i64 %32, %17
  %34 = getelementptr inbounds i32, i32* %20, i64 %33
  %35 = load i32, i32* %5, align 4
  %36 = sext i32 %35 to i64
  %37 = getelementptr inbounds i32, i32* %34, i64 %36
  %38 = call i32 (i8*, ...) @__isoc99_scanf(i8* getelementptr inbounds ([3 x i8], [3 x i8]* @.str.1, i64 0, i64 0), i32* %37)
  br label %39

39:                                               ; preds = %30
  %40 = load i32, i32* %5, align 4
  %41 = add nsw i32 %40, 1
  store i32 %41, i32* %5, align 4
  br label %26

42:                                               ; preds = %26
  br label %43

43:                                               ; preds = %42
  %44 = load i32, i32* %4, align 4
  %45 = add nsw i32 %44, 1
  store i32 %45, i32* %4, align 4
  br label %21

46:                                               ; preds = %21
  store i32 0, i32* %4, align 4
  br label %47

47:                                               ; preds = %123, %46
  %48 = load i32, i32* %4, align 4
  %49 = load i32, i32* %2, align 4
  %50 = icmp slt i32 %48, %49
  br i1 %50, label %51, label %126

51:                                               ; preds = %47
  %52 = load i32, i32* %4, align 4
  %53 = sext i32 %52 to i64
  %54 = mul nsw i64 %53, %17
  %55 = getelementptr inbounds i32, i32* %20, i64 %54
  %56 = getelementptr inbounds i32, i32* %55, i64 0
  %57 = load i32, i32* %56, align 4
  store i32 %57, i32* %6, align 4
  store i32 0, i32* %7, align 4
  store i32 1, i32* %5, align 4
  br label %58

58:                                               ; preds = %84, %51
  %59 = load i32, i32* %5, align 4
  %60 = load i32, i32* %3, align 4
  %61 = icmp slt i32 %59, %60
  br i1 %61, label %62, label %87

62:                                               ; preds = %58
  %63 = load i32, i32* %4, align 4
  %64 = sext i32 %63 to i64
  %65 = mul nsw i64 %64, %17
  %66 = getelementptr inbounds i32, i32* %20, i64 %65
  %67 = load i32, i32* %5, align 4
  %68 = sext i32 %67 to i64
  %69 = getelementptr inbounds i32, i32* %66, i64 %68
  %70 = load i32, i32* %69, align 4
  %71 = load i32, i32* %6, align 4
  %72 = icmp sgt i32 %70, %71
  br i1 %72, label %73, label %83

73:                                               ; preds = %62
  %74 = load i32, i32* %4, align 4
  %75 = sext i32 %74 to i64
  %76 = mul nsw i64 %75, %17
  %77 = getelementptr inbounds i32, i32* %20, i64 %76
  %78 = load i32, i32* %5, align 4
  %79 = sext i32 %78 to i64
  %80 = getelementptr inbounds i32, i32* %77, i64 %79
  %81 = load i32, i32* %80, align 4
  store i32 %81, i32* %6, align 4
  %82 = load i32, i32* %5, align 4
  store i32 %82, i32* %7, align 4
  br label %83

83:                                               ; preds = %73, %62
  br label %84

84:                                               ; preds = %83
  %85 = load i32, i32* %5, align 4
  %86 = add nsw i32 %85, 1
  store i32 %86, i32* %5, align 4
  br label %58

87:                                               ; preds = %58
  store i32 1, i32* %9, align 4
  store i32 0, i32* %5, align 4
  br label %88

88:                                               ; preds = %112, %87
  %89 = load i32, i32* %5, align 4
  %90 = load i32, i32* %2, align 4
  %91 = icmp slt i32 %89, %90
  br i1 %91, label %92, label %115

92:                                               ; preds = %88
  %93 = load i32, i32* %5, align 4
  %94 = sext i32 %93 to i64
  %95 = mul nsw i64 %94, %17
  %96 = getelementptr inbounds i32, i32* %20, i64 %95
  %97 = load i32, i32* %7, align 4
  %98 = sext i32 %97 to i64
  %99 = getelementptr inbounds i32, i32* %96, i64 %98
  %100 = load i32, i32* %99, align 4
  %101 = load i32, i32* %4, align 4
  %102 = sext i32 %101 to i64
  %103 = mul nsw i64 %102, %17
  %104 = getelementptr inbounds i32, i32* %20, i64 %103
  %105 = load i32, i32* %7, align 4
  %106 = sext i32 %105 to i64
  %107 = getelementptr inbounds i32, i32* %104, i64 %106
  %108 = load i32, i32* %107, align 4
  %109 = icmp slt i32 %100, %108
  br i1 %109, label %110, label %111

110:                                              ; preds = %92
  store i32 0, i32* %9, align 4
  br label %111

111:                                              ; preds = %110, %92
  br label %112

112:                                              ; preds = %111
  %113 = load i32, i32* %5, align 4
  %114 = add nsw i32 %113, 1
  store i32 %114, i32* %5, align 4
  br label %88

115:                                              ; preds = %88
  %116 = load i32, i32* %9, align 4
  %117 = icmp eq i32 %116, 1
  br i1 %117, label %118, label %122

118:                                              ; preds = %115
  %119 = load i32, i32* %4, align 4
  %120 = load i32, i32* %7, align 4
  %121 = call i32 (i8*, ...) @printf(i8* getelementptr inbounds ([7 x i8], [7 x i8]* @.str.2, i64 0, i64 0), i32 %119, i32 %120)
  store i32 1, i32* %8, align 4
  br label %122

122:                                              ; preds = %118, %115
  br label %123

123:                                              ; preds = %122
  %124 = load i32, i32* %4, align 4
  %125 = add nsw i32 %124, 1
  store i32 %125, i32* %4, align 4
  br label %47

126:                                              ; preds = %47
  %127 = load i32, i32* %8, align 4
  %128 = icmp eq i32 %127, 0
  br i1 %128, label %129, label %131

129:                                              ; preds = %126
  %130 = call i32 (i8*, ...) @printf(i8* getelementptr inbounds ([4 x i8], [4 x i8]* @.str.3, i64 0, i64 0))
  br label %131

131:                                              ; preds = %129, %126
  store i32 0, i32* %1, align 4
  %132 = load i8*, i8** %10, align 8
  call void @llvm.stackrestore(i8* %132)
  %133 = load i32, i32* %1, align 4
  ret i32 %133
}

declare dso_local i32 @__isoc99_scanf(i8*, ...) #1

; Function Attrs: nounwind
declare i8* @llvm.stacksave() #2

declare dso_local i32 @printf(i8*, ...) #1

; Function Attrs: nounwind
declare void @llvm.stackrestore(i8*) #2


!llvm.module.flags = !{!0}
!llvm.ident = !{!1}

!0 = !{i32 1, !"wchar_size", i32 4}
!1 = !{!"clang version 10.0.0-4ubuntu1 "}
